target datalayout = "e-m:e-p270:32:32-p271:32:32-p272:64:64-i64:64-i128:128-f80:128-n8:16:32:64-S128"
target triple = "x86_64-pc-linux-gnu"

@_ZN5Error8r_error_E = external global i32, align 4

; Function Attrs: mustprogress nounwind uwtable
define linkonce_odr dso_local noundef i32 @_ZN5Error9get_errorEv() #6 comdat align 2 {
  %1 = load i32, ptr @_ZN5Error8r_error_E, align 4, !tbaa !4
  ret i32 %1
}

; Function Attrs: mustprogress uwtable
define dso_local noundef ptr @_ZN16StatementArrayOp11make_randomER9CGContext(ptr noundef nonnull align 8 dereferenceable(216) %0) #4 align 2 {
  %2 = alloca ptr, align 8
  %3 = alloca ptr, align 8
  %4 = alloca i8, align 1
  %5 = alloca i32, align 4
  %6 = alloca ptr, align 8
  store ptr %0, ptr %3, align 8, !tbaa !11
  call void @llvm.lifetime.start.p0(i64 1, ptr %4) #3
  %7 = call noundef zeroext i1 @_Z12rnd_flipcoinjPK6FilterPKNSt7__cxx1112basic_stringIcSt11char_traitsIcESaIcEEE(i32 noundef 5, ptr noundef null, ptr noundef null)
  %8 = zext i1 %7 to i8
  store i8 %8, ptr %4, align 1, !tbaa !13
  %9 = call noundef i32 @_ZN5Error9get_errorEv()
  %10 = icmp ne i32 %9, 0
  br i1 %10, label %11, label %12

11:                                               ; preds = %1
  store ptr null, ptr %2, align 8
  store i32 1, ptr %5, align 4
  br label %22

12:                                               ; preds = %1
  %13 = load i8, ptr %4, align 1, !tbaa !13, !range !15, !noundef !16
  %14 = trunc i8 %13 to i1
  br i1 %14, label %15, label %18

15:                                               ; preds = %12
  %16 = load ptr, ptr %3, align 8, !tbaa !11
  %17 = call noundef ptr @_ZN16StatementArrayOp22make_random_array_initER9CGContext(ptr noundef nonnull align 8 dereferenceable(216) %16)
  store ptr %17, ptr %2, align 8
  store i32 1, ptr %5, align 4
  br label %22

18:                                               ; preds = %12
  call void @llvm.lifetime.start.p0(i64 8, ptr %6) #3
  %19 = load ptr, ptr %3, align 8, !tbaa !11
  %20 = call noundef ptr @_ZN12StatementFor22make_random_array_loopERK9CGContext(ptr noundef nonnull align 8 dereferenceable(216) %19)
  store ptr %20, ptr %6, align 8, !tbaa !17
  %21 = load ptr, ptr %6, align 8, !tbaa !17
  store ptr %21, ptr %2, align 8
  store i32 1, ptr %5, align 4
  call void @llvm.lifetime.end.p0(i64 8, ptr %6) #3
  br label %22

22:                                               ; preds = %18, %15, %11
  call void @llvm.lifetime.end.p0(i64 1, ptr %4) #3
  %23 = load ptr, ptr %2, align 8
  ret ptr %23
}