; Function Attrs: mustprogress uwtable
define dso_local noundef ptr @_ZN16StatementArrayOp11make_randomER9CGContext(ptr noundef nonnull align 8 dereferenceable(216) %0) local_unnamed_addr #3 align 2 {
  %2 = tail call noundef zeroext i1 @_Z12rnd_flipcoinjPK6FilterPKNSt7__cxx1112basic_stringIcSt11char_traitsIcESaIcEEE(i32 noundef 5, ptr noundef null, ptr noundef null)
  %3 = load i32, ptr @_ZN5Error8r_error_E, align 4, !tbaa !4
  %.not = icmp eq i32 %3, 0
  br i1 %.not, label %4, label %9

4:                                                ; preds = %1
  br i1 %2, label %5, label %7

5:                                                ; preds = %4
  %6 = tail call noundef ptr @_ZN16StatementArrayOp22make_random_array_initER9CGContext(ptr noundef nonnull align 8 dereferenceable(216) %0)
  br label %9

7:                                                ; preds = %4
  %8 = tail call noundef ptr @_ZN12StatementFor22make_random_array_loopERK9CGContext(ptr noundef nonnull align 8 dereferenceable(216) %0)
  br label %9

9:                                                ; preds = %1, %7, %5
  %.0 = phi ptr [ %6, %5 ], [ %8, %7 ], [ null, %1 ]
  ret ptr %.0
}